; Function Attrs: nounwind uwtable
define void @lv_chart_set_all_value(ptr noundef %0, ptr noundef %1, i32 noundef %2) local_unnamed_addr #0 {
  %.not = icmp eq ptr %1, null
  br i1 %.not, label %.preheader, label %.preheader10

.preheader10:                                     ; preds = %3
  %4 = getelementptr inbounds nuw i8, ptr %0, i64 156
  %5 = load i32, ptr %4, align 4, !tbaa !15
  %.not12 = icmp eq i32 %5, 0
  br i1 %.not12, label %._crit_edge, label %.lr.ph

.lr.ph:                                           ; preds = %.preheader10
  %6 = getelementptr inbounds nuw i8, ptr %1, i64 8
  %7 = load ptr, ptr %6, align 8, !tbaa !18
  br label %8

.preheader:                                       ; preds = %3, %.preheader
  br label %.preheader

8:                                                ; preds = %.lr.ph, %8
  %indvars.iv = phi i64 [ 0, %.lr.ph ], [ %indvars.iv.next, %8 ]
  %9 = getelementptr inbounds nuw i32, ptr %7, i64 %indvars.iv
  store i32 %2, ptr %9, align 4, !tbaa !3
  %indvars.iv.next = add nuw nsw i64 %indvars.iv, 1
  %10 = load i32, ptr %4, align 4, !tbaa !15
  %11 = zext i32 %10 to i64
  %12 = icmp samesign ult i64 %indvars.iv.next, %11
  br i1 %12, label %8, label %._crit_edge, !llvm.loop !75

._crit_edge:                                      ; preds = %8, %.preheader10
  %13 = getelementptr inbounds nuw i8, ptr %1, i64 20
  store i32 0, ptr %13, align 4, !tbaa !66
  tail call void @lv_obj_invalidate(ptr noundef nonnull %0) #8
  ret void
}